; Function Attrs: null_pointer_is_valid sspstrong uwtable
define internal i32 @dissect_h245_T_h223_al_type_al3(ptr noundef %0, i32 noundef %1, ptr noundef %2, ptr noundef %3, i32 noundef %4) #1 {
  %6 = load ptr, ptr @h223_lc_params_temp, align 8
  %.not = icmp eq ptr %6, null
  br i1 %.not, label %12, label %7

7:                                                ; preds = %5
  store i32 5, ptr %6, align 8
  %8 = tail call ptr @wmem_file_scope()
  %9 = tail call noalias dereferenceable_or_null(8) ptr @wmem_alloc(ptr noundef %8, i64 noundef 8) #11
  %10 = load ptr, ptr @h223_lc_params_temp, align 8
  %11 = getelementptr inbounds nuw i8, ptr %10, i64 8
  store ptr %9, ptr %11, align 8
  br label %12

12:                                               ; preds = %7, %5
  %13 = load i32, ptr @ett_h245_Al3, align 4
  %14 = tail call i32 @dissect_per_sequence(ptr noundef %0, i32 noundef %1, ptr noundef %2, ptr noundef %3, i32 noundef %4, i32 noundef %13, ptr noundef nonnull @Al3_sequence)
  ret i32 %14
}